target datalayout = "e-m:e-p270:32:32-p271:32:32-p272:64:64-i64:64-i128:128-f80:128-n8:16:32:64-S128"
target triple = "x86_64-pc-linux-gnu"

%struct.FunctionCallInfoBaseData = type { ptr, ptr, ptr, i32, i8, i16, [0 x %struct.NullableDatum] }
%struct.NullableDatum = type { i64, i8 }

; Function Attrs: inlinehint nounwind uwtable
define internal i64 @Int64GetDatum(i64 noundef %0) #2 {
  %2 = alloca i64, align 8
  store i64 %0, ptr %2, align 8
  %3 = load i64, ptr %2, align 8
  ret i64 %3
}

; Function Attrs: inlinehint nounwind uwtable
define internal i32 @DatumGetObjectId(i64 noundef %0) #2 {
  %2 = alloca i64, align 8
  store i64 %0, ptr %2, align 8
  %3 = load i64, ptr %2, align 8
  %4 = trunc i64 %3 to i32
  ret i32 %4
}

; Function Attrs: nounwind uwtable
define dso_local i64 @pg_indexes_size(ptr noundef %0) #0 {
  %2 = alloca i64, align 8
  %3 = alloca ptr, align 8
  %4 = alloca i32, align 4
  %5 = alloca ptr, align 8
  %6 = alloca i64, align 8
  %7 = alloca i32, align 4
  store ptr %0, ptr %3, align 8
  call void @llvm.lifetime.start.p0(i64 4, ptr %4) #10
  %8 = load ptr, ptr %3, align 8
  %9 = getelementptr inbounds nuw %struct.FunctionCallInfoBaseData, ptr %8, i32 0, i32 6
  %10 = getelementptr inbounds [0 x %struct.NullableDatum], ptr %9, i64 0, i64 0
  %11 = getelementptr inbounds nuw %struct.NullableDatum, ptr %10, i32 0, i32 0
  %12 = load i64, ptr %11, align 8
  %13 = call i32 @DatumGetObjectId(i64 noundef %12)
  store i32 %13, ptr %4, align 4
  call void @llvm.lifetime.start.p0(i64 8, ptr %5) #10
  call void @llvm.lifetime.start.p0(i64 8, ptr %6) #10
  %14 = load i32, ptr %4, align 4
  %15 = call ptr @try_relation_open(i32 noundef %14, i32 noundef 1)
  store ptr %15, ptr %5, align 8
  %16 = load ptr, ptr %5, align 8
  %17 = icmp eq ptr %16, null
  br i1 %17, label %18, label %24

18:                                               ; preds = %1
  br label %19

19:                                               ; preds = %18
  %20 = load ptr, ptr %3, align 8
  %21 = getelementptr inbounds nuw %struct.FunctionCallInfoBaseData, ptr %20, i32 0, i32 4
  store i8 1, ptr %21, align 4
  store i64 0, ptr %2, align 8
  store i32 1, ptr %7, align 4
  br label %30

22:                                               ; No predecessors!
  br label %23

23:                                               ; preds = %22
  br label %24

24:                                               ; preds = %23, %1
  %25 = load ptr, ptr %5, align 8
  %26 = call i64 @calculate_indexes_size(ptr noundef %25)
  store i64 %26, ptr %6, align 8
  %27 = load ptr, ptr %5, align 8
  call void @relation_close(ptr noundef %27, i32 noundef 1)
  %28 = load i64, ptr %6, align 8
  %29 = call i64 @Int64GetDatum(i64 noundef %28)
  store i64 %29, ptr %2, align 8
  store i32 1, ptr %7, align 4
  br label %30

30:                                               ; preds = %24, %19
  call void @llvm.lifetime.end.p0(i64 8, ptr %6) #10
  call void @llvm.lifetime.end.p0(i64 8, ptr %5) #10
  call void @llvm.lifetime.end.p0(i64 4, ptr %4) #10
  %31 = load i64, ptr %2, align 8
  ret i64 %31
}